target datalayout = "e-m:e-p270:32:32-p271:32:32-p272:64:64-i64:64-i128:128-f80:128-n8:16:32:64-S128"
target triple = "x86_64-pc-linux-gnu"

%struct.AVRational = type { i32, i32 }
%struct.AVCodecContext = type { ptr, i32, i32, ptr, i32, i32, ptr, ptr, ptr, i64, i32, i32, ptr, i32, %struct.AVRational, %struct.AVRational, %struct.AVRational, i32, i32, i32, i32, i32, %struct.AVRational, i32, i32, i32, i32, i32, i32, i32, i32, i32, i32, i32, ptr, ptr, i32, float, float, float, float, float, float, float, float, float, i32, i32, i32, i32, i32, i32, i32, i32, i32, i32, i32, i32, ptr, ptr, ptr, i32, i32, i32, i32, i32, i32, i32, i32, i32, i32, %struct.AVChannelLayout, i32, i32, i32, i32, i32, i32, i32, i32, ptr, i32, i32, i32, float, float, i32, i32, i32, i32, i32, ptr, i64, i64, float, float, i32, i32, ptr, ptr, i32, i32, i32, i32, i32, ptr, ptr, ptr, ptr, i32, i32, [8 x i64], i32, i32, i32, i32, i32, i32, i32, ptr, ptr, i32, i32, i32, i32, i32, i32, i32, i32, i32, i32, ptr, ptr, i32, i32, ptr, ptr, ptr, ptr, i32, i32, i64, i32, i32, i64, ptr, i64, ptr, i32, ptr, i32 }
%struct.AVChannelLayout = type { i32, i32, %union.anon, ptr }
%union.anon = type { i64 }
%struct.AVPacketSideData = type { ptr, i64, i32 }

; Function Attrs: nounwind uwtable
define ptr @ff_encode_add_cpb_side_data(ptr noundef %0) #0 {
  %2 = alloca ptr, align 8
  %3 = alloca ptr, align 8
  %4 = alloca ptr, align 8
  %5 = alloca ptr, align 8
  %6 = alloca i64, align 8
  %7 = alloca i32, align 4
  %8 = alloca i32, align 4
  store ptr %0, ptr %3, align 8, !tbaa !4
  call void @llvm.lifetime.start.p0(i64 8, ptr %4) #10
  call void @llvm.lifetime.start.p0(i64 8, ptr %5) #10
  call void @llvm.lifetime.start.p0(i64 8, ptr %6) #10
  call void @llvm.lifetime.start.p0(i64 4, ptr %7) #10
  store i32 0, ptr %7, align 4, !tbaa !41
  br label %9

9:                                                ; preds = %35, %1
  %10 = load i32, ptr %7, align 4, !tbaa !41
  %11 = load ptr, ptr %3, align 8, !tbaa !4
  %12 = getelementptr inbounds nuw %struct.AVCodecContext, ptr %11, i32 0, i32 139
  %13 = load i32, ptr %12, align 8, !tbaa !127
  %14 = icmp slt i32 %10, %13
  br i1 %14, label %15, label %38

15:                                               ; preds = %9
  %16 = load ptr, ptr %3, align 8, !tbaa !4
  %17 = getelementptr inbounds nuw %struct.AVCodecContext, ptr %16, i32 0, i32 138
  %18 = load ptr, ptr %17, align 8, !tbaa !126
  %19 = load i32, ptr %7, align 4, !tbaa !41
  %20 = sext i32 %19 to i64
  %21 = getelementptr inbounds %struct.AVPacketSideData, ptr %18, i64 %20
  %22 = getelementptr inbounds nuw %struct.AVPacketSideData, ptr %21, i32 0, i32 2
  %23 = load i32, ptr %22, align 8, !tbaa !172
  %24 = icmp eq i32 %23, 10
  br i1 %24, label %25, label %34

25:                                               ; preds = %15
  %26 = load ptr, ptr %3, align 8, !tbaa !4
  %27 = getelementptr inbounds nuw %struct.AVCodecContext, ptr %26, i32 0, i32 138
  %28 = load ptr, ptr %27, align 8, !tbaa !126
  %29 = load i32, ptr %7, align 4, !tbaa !41
  %30 = sext i32 %29 to i64
  %31 = getelementptr inbounds %struct.AVPacketSideData, ptr %28, i64 %30
  %32 = getelementptr inbounds nuw %struct.AVPacketSideData, ptr %31, i32 0, i32 0
  %33 = load ptr, ptr %32, align 8, !tbaa !129
  store ptr %33, ptr %2, align 8
  store i32 1, ptr %8, align 4
  br label %97

34:                                               ; preds = %15
  br label %35

35:                                               ; preds = %34
  %36 = load i32, ptr %7, align 4, !tbaa !41
  %37 = add nsw i32 %36, 1
  store i32 %37, ptr %7, align 4, !tbaa !41
  br label %9, !llvm.loop !173

38:                                               ; preds = %9
  %39 = call ptr @av_cpb_properties_alloc(ptr noundef %6)
  store ptr %39, ptr %5, align 8, !tbaa !174
  %40 = load ptr, ptr %5, align 8, !tbaa !174
  %41 = icmp ne ptr %40, null
  br i1 %41, label %43, label %42

42:                                               ; preds = %38
  store ptr null, ptr %2, align 8
  store i32 1, ptr %8, align 4
  br label %97

43:                                               ; preds = %38
  %44 = load ptr, ptr %3, align 8, !tbaa !4
  %45 = getelementptr inbounds nuw %struct.AVCodecContext, ptr %44, i32 0, i32 138
  %46 = load ptr, ptr %45, align 8, !tbaa !126
  %47 = load ptr, ptr %3, align 8, !tbaa !4
  %48 = getelementptr inbounds nuw %struct.AVCodecContext, ptr %47, i32 0, i32 139
  %49 = load i32, ptr %48, align 8, !tbaa !127
  %50 = add nsw i32 %49, 1
  %51 = sext i32 %50 to i64
  %52 = call ptr @av_realloc_array(ptr noundef %46, i64 noundef %51, i64 noundef 24)
  store ptr %52, ptr %4, align 8, !tbaa !128
  %53 = load ptr, ptr %4, align 8, !tbaa !128
  %54 = icmp ne ptr %53, null
  br i1 %54, label %56, label %55

55:                                               ; preds = %43
  call void @av_freep(ptr noundef %5)
  store ptr null, ptr %2, align 8
  store i32 1, ptr %8, align 4
  br label %97

56:                                               ; preds = %43
  %57 = load ptr, ptr %4, align 8, !tbaa !128
  %58 = load ptr, ptr %3, align 8, !tbaa !4
  %59 = getelementptr inbounds nuw %struct.AVCodecContext, ptr %58, i32 0, i32 138
  store ptr %57, ptr %59, align 8, !tbaa !126
  %60 = load ptr, ptr %3, align 8, !tbaa !4
  %61 = getelementptr inbounds nuw %struct.AVCodecContext, ptr %60, i32 0, i32 139
  %62 = load i32, ptr %61, align 8, !tbaa !127
  %63 = add nsw i32 %62, 1
  store i32 %63, ptr %61, align 8, !tbaa !127
  %64 = load ptr, ptr %3, align 8, !tbaa !4
  %65 = getelementptr inbounds nuw %struct.AVCodecContext, ptr %64, i32 0, i32 138
  %66 = load ptr, ptr %65, align 8, !tbaa !126
  %67 = load ptr, ptr %3, align 8, !tbaa !4
  %68 = getelementptr inbounds nuw %struct.AVCodecContext, ptr %67, i32 0, i32 139
  %69 = load i32, ptr %68, align 8, !tbaa !127
  %70 = sub nsw i32 %69, 1
  %71 = sext i32 %70 to i64
  %72 = getelementptr inbounds %struct.AVPacketSideData, ptr %66, i64 %71
  %73 = getelementptr inbounds nuw %struct.AVPacketSideData, ptr %72, i32 0, i32 2
  store i32 10, ptr %73, align 8, !tbaa !172
  %74 = load ptr, ptr %5, align 8, !tbaa !174
  %75 = load ptr, ptr %3, align 8, !tbaa !4
  %76 = getelementptr inbounds nuw %struct.AVCodecContext, ptr %75, i32 0, i32 138
  %77 = load ptr, ptr %76, align 8, !tbaa !126
  %78 = load ptr, ptr %3, align 8, !tbaa !4
  %79 = getelementptr inbounds nuw %struct.AVCodecContext, ptr %78, i32 0, i32 139
  %80 = load i32, ptr %79, align 8, !tbaa !127
  %81 = sub nsw i32 %80, 1
  %82 = sext i32 %81 to i64
  %83 = getelementptr inbounds %struct.AVPacketSideData, ptr %77, i64 %82
  %84 = getelementptr inbounds nuw %struct.AVPacketSideData, ptr %83, i32 0, i32 0
  store ptr %74, ptr %84, align 8, !tbaa !129
  %85 = load i64, ptr %6, align 8, !tbaa !11
  %86 = load ptr, ptr %3, align 8, !tbaa !4
  %87 = getelementptr inbounds nuw %struct.AVCodecContext, ptr %86, i32 0, i32 138
  %88 = load ptr, ptr %87, align 8, !tbaa !126
  %89 = load ptr, ptr %3, align 8, !tbaa !4
  %90 = getelementptr inbounds nuw %struct.AVCodecContext, ptr %89, i32 0, i32 139
  %91 = load i32, ptr %90, align 8, !tbaa !127
  %92 = sub nsw i32 %91, 1
  %93 = sext i32 %92 to i64
  %94 = getelementptr inbounds %struct.AVPacketSideData, ptr %88, i64 %93
  %95 = getelementptr inbounds nuw %struct.AVPacketSideData, ptr %94, i32 0, i32 1
  store i64 %85, ptr %95, align 8, !tbaa !176
  %96 = load ptr, ptr %5, align 8, !tbaa !174
  store ptr %96, ptr %2, align 8
  store i32 1, ptr %8, align 4
  br label %97

97:                                               ; preds = %56, %55, %42, %25
  call void @llvm.lifetime.end.p0(i64 4, ptr %7) #10
  call void @llvm.lifetime.end.p0(i64 8, ptr %6) #10
  call void @llvm.lifetime.end.p0(i64 8, ptr %5) #10
  call void @llvm.lifetime.end.p0(i64 8, ptr %4) #10
  %98 = load ptr, ptr %2, align 8
  ret ptr %98
}