; Function Attrs: nounwind uwtable
define ptr @ff_encode_add_cpb_side_data(ptr noundef captures(none) %0) local_unnamed_addr #0 {
  %2 = alloca ptr, align 8
  %3 = alloca i64, align 8
  call void @llvm.lifetime.start.p0(i64 8, ptr nonnull %2) #8
  call void @llvm.lifetime.start.p0(i64 8, ptr nonnull %3) #8
  %4 = getelementptr inbounds nuw i8, ptr %0, i64 784
  %5 = load i32, ptr %4, align 8, !tbaa !139
  %6 = icmp sgt i32 %5, 0
  br i1 %6, label %.lr.ph, label %._crit_edge

.lr.ph:                                           ; preds = %1
  %7 = getelementptr inbounds nuw i8, ptr %0, i64 776
  %8 = load ptr, ptr %7, align 8, !tbaa !138
  %wide.trip.count = zext nneg i32 %5 to i64
  br label %10

9:                                                ; preds = %10
  %indvars.iv.next = add nuw nsw i64 %indvars.iv, 1
  %exitcond.not = icmp eq i64 %indvars.iv.next, %wide.trip.count
  br i1 %exitcond.not, label %._crit_edge, label %10, !llvm.loop !150

10:                                               ; preds = %.lr.ph, %9
  %indvars.iv = phi i64 [ 0, %.lr.ph ], [ %indvars.iv.next, %9 ]
  %11 = getelementptr inbounds nuw %struct.AVPacketSideData, ptr %8, i64 %indvars.iv
  %12 = getelementptr inbounds nuw i8, ptr %11, i64 16
  %13 = load i32, ptr %12, align 8, !tbaa !151
  %14 = icmp eq i32 %13, 10
  br i1 %14, label %15, label %9

15:                                               ; preds = %10
  %16 = load ptr, ptr %11, align 8, !tbaa !140
  br label %36

._crit_edge:                                      ; preds = %9, %1
  %17 = call ptr @av_cpb_properties_alloc(ptr noundef nonnull %3) #8
  store ptr %17, ptr %2, align 8, !tbaa !152
  %.not = icmp eq ptr %17, null
  br i1 %.not, label %36, label %18

18:                                               ; preds = %._crit_edge
  %19 = getelementptr inbounds nuw i8, ptr %0, i64 776
  %20 = load ptr, ptr %19, align 8, !tbaa !138
  %21 = load i32, ptr %4, align 8, !tbaa !139
  %22 = add nsw i32 %21, 1
  %23 = sext i32 %22 to i64
  %24 = call ptr @av_realloc_array(ptr noundef %20, i64 noundef %23, i64 noundef 24) #8
  %.not21 = icmp eq ptr %24, null
  br i1 %.not21, label %25, label %26

25:                                               ; preds = %18
  call void @av_freep(ptr noundef nonnull %2) #8
  br label %36

26:                                               ; preds = %18
  store ptr %24, ptr %19, align 8, !tbaa !138
  %27 = load i32, ptr %4, align 8, !tbaa !139
  %28 = add nsw i32 %27, 1
  store i32 %28, ptr %4, align 8, !tbaa !139
  %29 = sext i32 %27 to i64
  %30 = getelementptr inbounds %struct.AVPacketSideData, ptr %24, i64 %29, i32 2
  store i32 10, ptr %30, align 8, !tbaa !151
  %31 = getelementptr inbounds %struct.AVPacketSideData, ptr %24, i64 %29
  store ptr %17, ptr %31, align 8, !tbaa !140
  %32 = load i64, ptr %3, align 8, !tbaa !154
  %33 = sext i32 %28 to i64
  %34 = getelementptr %struct.AVPacketSideData, ptr %24, i64 %33
  %35 = getelementptr i8, ptr %34, i64 -16
  store i64 %32, ptr %35, align 8, !tbaa !155
  br label %36

36:                                               ; preds = %._crit_edge, %26, %25, %15
  %.019 = phi ptr [ %16, %15 ], [ %17, %26 ], [ null, %25 ], [ null, %._crit_edge ]
  call void @llvm.lifetime.end.p0(i64 8, ptr nonnull %3) #8
  call void @llvm.lifetime.end.p0(i64 8, ptr nonnull %2) #8
  ret ptr %.019
}